; Function Attrs: mustprogress nounwind willreturn uwtable
define void @Aig_ObjClearReverseLevel(ptr noundef readonly captures(none) %0, ptr noundef readonly captures(none) %1) local_unnamed_addr #0 {
  %3 = getelementptr inbounds nuw i8, ptr %0, i64 280
  %4 = load ptr, ptr %3, align 8, !tbaa !3
  %5 = getelementptr inbounds nuw i8, ptr %1, i64 36
  %6 = load i32, ptr %5, align 4, !tbaa !21
  %7 = add nsw i32 %6, 1
  %8 = getelementptr inbounds nuw i8, ptr %4, i64 4
  %9 = load i32, ptr %8, align 4, !tbaa !22
  %.not.i.not.i = icmp slt i32 %6, %9
  br i1 %.not.i.not.i, label %Aig_ObjSetReverseLevel.exit, label %10

10:                                               ; preds = %2
  %11 = load i32, ptr %4, align 8, !tbaa !24
  %12 = shl nsw i32 %11, 1
  %.not.i = icmp slt i32 %6, %12
  %.not.i.i.not.i = icmp sgt i32 %11, %6
  br i1 %.not.i, label %25, label %13

13:                                               ; preds = %10
  br i1 %.not.i.i.not.i, label %Vec_IntGrow.exit.i.i, label %14

14:                                               ; preds = %13
  %15 = getelementptr inbounds nuw i8, ptr %4, i64 8
  %16 = load ptr, ptr %15, align 8, !tbaa !25
  %.not9.i.i.i = icmp eq ptr %16, null
  %17 = sext i32 %7 to i64
  %18 = shl nsw i64 %17, 2
  br i1 %.not9.i.i.i, label %21, label %19

19:                                               ; preds = %14
  %20 = tail call ptr @realloc(ptr noundef nonnull %16, i64 noundef %18) #12
  br label %23

21:                                               ; preds = %14
  %22 = tail call noalias ptr @malloc(i64 noundef %18) #13
  br label %23

23:                                               ; preds = %21, %19
  %24 = phi ptr [ %20, %19 ], [ %22, %21 ]
  store ptr %24, ptr %15, align 8, !tbaa !25
  br label %Vec_IntGrow.exit.sink.split.i.i

25:                                               ; preds = %10
  br i1 %.not.i.i.not.i, label %Vec_IntGrow.exit.i.i, label %26

26:                                               ; preds = %25
  %27 = getelementptr inbounds nuw i8, ptr %4, i64 8
  %28 = load ptr, ptr %27, align 8, !tbaa !25
  %.not9.i21.i.i = icmp eq ptr %28, null
  %29 = sext i32 %12 to i64
  %30 = shl nsw i64 %29, 2
  br i1 %.not9.i21.i.i, label %33, label %31

31:                                               ; preds = %26
  %32 = tail call ptr @realloc(ptr noundef nonnull %28, i64 noundef %30) #12
  br label %35

33:                                               ; preds = %26
  %34 = tail call noalias ptr @malloc(i64 noundef %30) #13
  br label %35

35:                                               ; preds = %33, %31
  %36 = phi ptr [ %32, %31 ], [ %34, %33 ]
  store ptr %36, ptr %27, align 8, !tbaa !25
  br label %Vec_IntGrow.exit.sink.split.i.i

Vec_IntGrow.exit.sink.split.i.i:                  ; preds = %35, %23
  %.sink.i.i = phi i32 [ %12, %35 ], [ %7, %23 ]
  store i32 %.sink.i.i, ptr %4, align 8, !tbaa !24
  %.pre.i = load i32, ptr %8, align 4, !tbaa !22
  br label %Vec_IntGrow.exit.i.i

Vec_IntGrow.exit.i.i:                             ; preds = %Vec_IntGrow.exit.sink.split.i.i, %25, %13
  %37 = phi i32 [ %.pre.i, %Vec_IntGrow.exit.sink.split.i.i ], [ %9, %25 ], [ %9, %13 ]
  %.not4.i = icmp sgt i32 %37, %6
  br i1 %.not4.i, label %._crit_edge.i.i, label %.lr.ph.i.i

.lr.ph.i.i:                                       ; preds = %Vec_IntGrow.exit.i.i
  %38 = getelementptr inbounds nuw i8, ptr %4, i64 8
  %39 = load ptr, ptr %38, align 8, !tbaa !25
  %40 = sext i32 %37 to i64
  %41 = shl nsw i64 %40, 2
  %scevgep.i.i = getelementptr i8, ptr %39, i64 %41
  %42 = sub i32 %6, %37
  %43 = zext i32 %42 to i64
  %44 = shl nuw nsw i64 %43, 2
  %45 = add nuw nsw i64 %44, 4
  tail call void @llvm.memset.p0.i64(ptr noundef nonnull align 4 dereferenceable(1) %scevgep.i.i, i8 0, i64 %45, i1 false), !tbaa !26
  br label %._crit_edge.i.i

._crit_edge.i.i:                                  ; preds = %.lr.ph.i.i, %Vec_IntGrow.exit.i.i
  store i32 %7, ptr %8, align 4, !tbaa !22
  %.pre5.i = load ptr, ptr %3, align 8, !tbaa !3
  %.pre6.i = load i32, ptr %5, align 4, !tbaa !21
  br label %Aig_ObjSetReverseLevel.exit

Aig_ObjSetReverseLevel.exit:                      ; preds = %2, %._crit_edge.i.i
  %46 = phi i32 [ %6, %2 ], [ %.pre6.i, %._crit_edge.i.i ]
  %47 = phi ptr [ %4, %2 ], [ %.pre5.i, %._crit_edge.i.i ]
  %48 = getelementptr i8, ptr %47, i64 8
  %.val.i = load ptr, ptr %48, align 8, !tbaa !25
  %49 = sext i32 %46 to i64
  %50 = getelementptr inbounds i32, ptr %.val.i, i64 %49
  store i32 0, ptr %50, align 4, !tbaa !26
  ret void
}